target datalayout = "e-m:e-p270:32:32-p271:32:32-p272:64:64-i64:64-i128:128-f80:128-n8:16:32:64-S128"
target triple = "x86_64-pc-linux-gnu"

%struct.SDL_Renderer = type { ptr, ptr, ptr, ptr, ptr, ptr, ptr, ptr, ptr, ptr, ptr, ptr, ptr, ptr, ptr, ptr, ptr, ptr, ptr, ptr, ptr, ptr, ptr, ptr, ptr, ptr, ptr, ptr, ptr, ptr, i32, i8, ptr, i8, i8, i8, i64, i64, ptr, %struct.SDL_RenderViewState, %struct.SDL_FPoint, i32, i32, ptr, ptr, ptr, i32, float, float, float, float, %struct.SDL_FColor, i32, i32, i32, ptr, ptr, ptr, ptr, i32, %struct.SDL_FColor, float, %struct.SDL_Rect, %struct.SDL_Rect, i8, i8, i8, i8, ptr, i64, i64, i8, ptr, ptr, i32, ptr, i8, ptr, ptr }
%struct.SDL_RenderViewState = type { i32, i32, %struct.SDL_Rect, %struct.SDL_Rect, %struct.SDL_Rect, %struct.SDL_Rect, i8, %struct.SDL_FPoint, i32, i32, i32, %struct.SDL_FRect, %struct.SDL_FRect, %struct.SDL_FPoint, %struct.SDL_FPoint, %struct.SDL_FPoint }
%struct.SDL_FRect = type { float, float, float, float }
%struct.SDL_FPoint = type { float, float }
%struct.SDL_FColor = type { float, float, float, float }
%struct.SDL_Rect = type { i32, i32, i32, i32 }

@.str.2 = private unnamed_addr constant [26 x i8] c"Parameter '%s' is invalid\00", align 1
@.str.5 = private unnamed_addr constant [9 x i8] c"renderer\00", align 1
@.str.29 = private unnamed_addr constant [56 x i8] c"Renderer's window has been destroyed, can't use further\00", align 1

; Function Attrs: nounwind uwtable
define hidden zeroext i1 @SDL_GetRenderTextureAddressMode_REAL(ptr noundef %0, ptr noundef %1, ptr noundef %2) #0 {
  %4 = alloca i1, align 1
  %5 = alloca ptr, align 8
  %6 = alloca ptr, align 8
  %7 = alloca ptr, align 8
  store ptr %0, ptr %5, align 8
  store ptr %1, ptr %6, align 8
  store ptr %2, ptr %7, align 8
  %8 = load ptr, ptr %6, align 8
  %9 = icmp ne ptr %8, null
  br i1 %9, label %10, label %12

10:                                               ; preds = %3
  %11 = load ptr, ptr %6, align 8
  store i32 -1, ptr %11, align 4
  br label %12

12:                                               ; preds = %10, %3
  %13 = load ptr, ptr %7, align 8
  %14 = icmp ne ptr %13, null
  br i1 %14, label %15, label %17

15:                                               ; preds = %12
  %16 = load ptr, ptr %7, align 8
  store i32 -1, ptr %16, align 4
  br label %17

17:                                               ; preds = %15, %12
  %18 = load ptr, ptr %5, align 8
  %19 = call zeroext i1 @SDL_ObjectValid(ptr noundef %18, i32 noundef 2)
  br i1 %19, label %22, label %20

20:                                               ; preds = %17
  %21 = call zeroext i1 (ptr, ...) @SDL_SetError_REAL(ptr noundef @.str.2, ptr noundef @.str.5)
  store i1 false, ptr %4, align 1
  br label %46

22:                                               ; preds = %17
  %23 = load ptr, ptr %5, align 8
  %24 = getelementptr inbounds nuw %struct.SDL_Renderer, ptr %23, i32 0, i32 76
  %25 = load i8, ptr %24, align 8, !range !5, !noundef !6
  %26 = trunc i8 %25 to i1
  br i1 %26, label %27, label %29

27:                                               ; preds = %22
  %28 = call zeroext i1 (ptr, ...) @SDL_SetError_REAL(ptr noundef @.str.29)
  store i1 false, ptr %4, align 1
  br label %46

29:                                               ; preds = %22
  %30 = load ptr, ptr %6, align 8
  %31 = icmp ne ptr %30, null
  br i1 %31, label %32, label %37

32:                                               ; preds = %29
  %33 = load ptr, ptr %5, align 8
  %34 = getelementptr inbounds nuw %struct.SDL_Renderer, ptr %33, i32 0, i32 53
  %35 = load i32, ptr %34, align 8
  %36 = load ptr, ptr %6, align 8
  store i32 %35, ptr %36, align 4
  br label %37

37:                                               ; preds = %32, %29
  %38 = load ptr, ptr %7, align 8
  %39 = icmp ne ptr %38, null
  br i1 %39, label %40, label %45

40:                                               ; preds = %37
  %41 = load ptr, ptr %5, align 8
  %42 = getelementptr inbounds nuw %struct.SDL_Renderer, ptr %41, i32 0, i32 54
  %43 = load i32, ptr %42, align 4
  %44 = load ptr, ptr %7, align 8
  store i32 %43, ptr %44, align 4
  br label %45

45:                                               ; preds = %40, %37
  store i1 true, ptr %4, align 1
  br label %46

46:                                               ; preds = %45, %27, %20
  %47 = load i1, ptr %4, align 1
  ret i1 %47
}