; Function Attrs: nounwind uwtable
define hidden noundef zeroext i1 @SDL_GetRenderTextureAddressMode_REAL(ptr noundef %0, ptr noundef writeonly captures(address_is_null) %1, ptr noundef writeonly captures(address_is_null) %2) local_unnamed_addr #0 {
  %.not = icmp eq ptr %1, null
  br i1 %.not, label %5, label %4

4:                                                ; preds = %3
  store i32 -1, ptr %1, align 4
  br label %5

5:                                                ; preds = %4, %3
  %.not16 = icmp eq ptr %2, null
  br i1 %.not16, label %7, label %6

6:                                                ; preds = %5
  store i32 -1, ptr %2, align 4
  br label %7

7:                                                ; preds = %6, %5
  %8 = tail call zeroext i1 @SDL_ObjectValid(ptr noundef %0, i32 noundef 2) #15
  br i1 %8, label %11, label %9

9:                                                ; preds = %7
  %10 = tail call zeroext i1 (ptr, ...) @SDL_SetError_REAL(ptr noundef nonnull @.str.2, ptr noundef nonnull @.str.5) #15
  br label %25

11:                                               ; preds = %7
  %12 = getelementptr inbounds nuw i8, ptr %0, i64 688
  %13 = load i8, ptr %12, align 8, !range !3, !noundef !4
  %14 = trunc nuw i8 %13 to i1
  br i1 %14, label %15, label %17

15:                                               ; preds = %11
  %16 = tail call zeroext i1 (ptr, ...) @SDL_SetError_REAL(ptr noundef nonnull @.str.29) #15
  br label %25

17:                                               ; preds = %11
  br i1 %.not, label %21, label %18

18:                                               ; preds = %17
  %19 = getelementptr inbounds nuw i8, ptr %0, i64 520
  %20 = load i32, ptr %19, align 8
  store i32 %20, ptr %1, align 4
  br label %21

21:                                               ; preds = %18, %17
  br i1 %.not16, label %25, label %22

22:                                               ; preds = %21
  %23 = getelementptr inbounds nuw i8, ptr %0, i64 524
  %24 = load i32, ptr %23, align 4
  store i32 %24, ptr %2, align 4
  br label %25

25:                                               ; preds = %21, %22, %15, %9
  %.0 = phi i1 [ false, %15 ], [ false, %9 ], [ true, %22 ], [ true, %21 ]
  ret i1 %.0
}